target datalayout = "e-m:e-p270:32:32-p271:32:32-p272:64:64-i64:64-i128:128-f80:128-n8:16:32:64-S128"
target triple = "x86_64-pc-linux-gnu"

%struct.lbtru_sqn_frame_list_callback_data_t = type { ptr, ptr, i32 }
%struct._proto_node = type { ptr, ptr, ptr, ptr, ptr, ptr, ptr }
%struct.field_info = type { ptr, i32, i32, i32, i32, i32, i32, ptr, ptr, ptr, i32, i32 }
%struct.lbm_transport_sqn_frame_t = type { i32, i8 }

@hf_lbtru_analysis_sqn_frame = internal global i32 0, align 4
@.str.257 = private unnamed_addr constant [8 x i8] c"%u (RX)\00", align 1

; Function Attrs: inlinehint nounwind null_pointer_is_valid sspstrong uwtable
define internal void @proto_item_set_generated(ptr noundef %0) #5 {
  %2 = alloca ptr, align 8
  store ptr %0, ptr %2, align 8
  %3 = load ptr, ptr %2, align 8
  %4 = icmp ne ptr %3, null
  br i1 %4, label %5, label %24

5:                                                ; preds = %1
  br label %6

6:                                                ; preds = %5
  %7 = load ptr, ptr %2, align 8
  %8 = getelementptr inbounds nuw %struct._proto_node, ptr %7, i32 0, i32 5
  %9 = load ptr, ptr %8, align 8
  %10 = icmp ne ptr %9, null
  br i1 %10, label %11, label %22

11:                                               ; preds = %6
  %12 = load ptr, ptr %2, align 8
  %13 = getelementptr inbounds nuw %struct._proto_node, ptr %12, i32 0, i32 5
  %14 = load ptr, ptr %13, align 8
  %15 = getelementptr inbounds nuw %struct.field_info, ptr %14, i32 0, i32 6
  %16 = load i32, ptr %15, align 4
  %17 = or i32 %16, 2
  %18 = load ptr, ptr %2, align 8
  %19 = getelementptr inbounds nuw %struct._proto_node, ptr %18, i32 0, i32 5
  %20 = load ptr, ptr %19, align 8
  %21 = getelementptr inbounds nuw %struct.field_info, ptr %20, i32 0, i32 6
  store i32 %17, ptr %21, align 4
  br label %22

22:                                               ; preds = %11, %6
  br label %23

23:                                               ; preds = %22
  br label %24

24:                                               ; preds = %23, %1
  ret void
}

; Function Attrs: null_pointer_is_valid sspstrong uwtable
define internal zeroext i1 @dissect_lbtru_sqn_frame_list_callback(ptr noundef %0, ptr noundef %1, ptr noundef %2) #0 {
  %4 = alloca ptr, align 8
  %5 = alloca ptr, align 8
  %6 = alloca ptr, align 8
  %7 = alloca ptr, align 8
  %8 = alloca ptr, align 8
  %9 = alloca ptr, align 8
  store ptr %0, ptr %4, align 8
  store ptr %1, ptr %5, align 8
  store ptr %2, ptr %6, align 8
  call void @llvm.lifetime.start.p0(i64 8, ptr %7) #9
  %10 = load ptr, ptr %6, align 8
  store ptr %10, ptr %7, align 8
  call void @llvm.lifetime.start.p0(i64 8, ptr %8) #9
  store ptr null, ptr %8, align 8
  call void @llvm.lifetime.start.p0(i64 8, ptr %9) #9
  %11 = load ptr, ptr %5, align 8
  store ptr %11, ptr %9, align 8
  %12 = load ptr, ptr %9, align 8
  %13 = getelementptr inbounds nuw %struct.lbm_transport_sqn_frame_t, ptr %12, i32 0, i32 0
  %14 = load i32, ptr %13, align 4
  %15 = load ptr, ptr %7, align 8
  %16 = getelementptr inbounds nuw %struct.lbtru_sqn_frame_list_callback_data_t, ptr %15, i32 0, i32 2
  %17 = load i32, ptr %16, align 8
  %18 = icmp ne i32 %14, %17
  br i1 %18, label %19, label %53

19:                                               ; preds = %3
  %20 = load ptr, ptr %9, align 8
  %21 = getelementptr inbounds nuw %struct.lbm_transport_sqn_frame_t, ptr %20, i32 0, i32 1
  %22 = load i8, ptr %21, align 4, !range !6, !noundef !7
  %23 = trunc i8 %22 to i1
  br i1 %23, label %24, label %39

24:                                               ; preds = %19
  %25 = load ptr, ptr %7, align 8
  %26 = getelementptr inbounds nuw %struct.lbtru_sqn_frame_list_callback_data_t, ptr %25, i32 0, i32 0
  %27 = load ptr, ptr %26, align 8
  %28 = load i32, ptr @hf_lbtru_analysis_sqn_frame, align 4
  %29 = load ptr, ptr %7, align 8
  %30 = getelementptr inbounds nuw %struct.lbtru_sqn_frame_list_callback_data_t, ptr %29, i32 0, i32 1
  %31 = load ptr, ptr %30, align 8
  %32 = load ptr, ptr %9, align 8
  %33 = getelementptr inbounds nuw %struct.lbm_transport_sqn_frame_t, ptr %32, i32 0, i32 0
  %34 = load i32, ptr %33, align 4
  %35 = load ptr, ptr %9, align 8
  %36 = getelementptr inbounds nuw %struct.lbm_transport_sqn_frame_t, ptr %35, i32 0, i32 0
  %37 = load i32, ptr %36, align 4
  %38 = call ptr (ptr, i32, ptr, i32, i32, i32, ptr, ...) @proto_tree_add_uint_format_value(ptr noundef %27, i32 noundef %28, ptr noundef %31, i32 noundef 0, i32 noundef 0, i32 noundef %34, ptr noundef @.str.257, i32 noundef %37)
  store ptr %38, ptr %8, align 8
  br label %51

39:                                               ; preds = %19
  %40 = load ptr, ptr %7, align 8
  %41 = getelementptr inbounds nuw %struct.lbtru_sqn_frame_list_callback_data_t, ptr %40, i32 0, i32 0
  %42 = load ptr, ptr %41, align 8
  %43 = load i32, ptr @hf_lbtru_analysis_sqn_frame, align 4
  %44 = load ptr, ptr %7, align 8
  %45 = getelementptr inbounds nuw %struct.lbtru_sqn_frame_list_callback_data_t, ptr %44, i32 0, i32 1
  %46 = load ptr, ptr %45, align 8
  %47 = load ptr, ptr %9, align 8
  %48 = getelementptr inbounds nuw %struct.lbm_transport_sqn_frame_t, ptr %47, i32 0, i32 0
  %49 = load i32, ptr %48, align 4
  %50 = call ptr @proto_tree_add_uint(ptr noundef %42, i32 noundef %43, ptr noundef %46, i32 noundef 0, i32 noundef 0, i32 noundef %49)
  store ptr %50, ptr %8, align 8
  br label %51

51:                                               ; preds = %39, %24
  %52 = load ptr, ptr %8, align 8
  call void @proto_item_set_generated(ptr noundef %52)
  br label %53

53:                                               ; preds = %51, %3
  call void @llvm.lifetime.end.p0(i64 8, ptr %9) #9
  call void @llvm.lifetime.end.p0(i64 8, ptr %8) #9
  call void @llvm.lifetime.end.p0(i64 8, ptr %7) #9
  ret i1 false
}